target datalayout = "e-m:e-p270:32:32-p271:32:32-p272:64:64-i64:64-i128:128-f80:128-n8:16:32:64-S128"
target triple = "x86_64-unknown-linux-gnu"

%"class.std::__cxx11::basic_string" = type { %"struct.std::__cxx11::basic_string<char>::_Alloc_hider", i64, %union.anon }
%"struct.std::__cxx11::basic_string<char>::_Alloc_hider" = type { ptr }
%union.anon = type { i64, [8 x i8] }

; Function Attrs: mustprogress noreturn nounwind uwtable
define dso_local void @napi_fatal_error(ptr noundef %location, i64 noundef %location_len, ptr noundef %message, i64 noundef %message_len) #9 {
entry:
  %location.addr = alloca ptr, align 8
  %location_len.addr = alloca i64, align 8
  %message.addr = alloca ptr, align 8
  %message_len.addr = alloca i64, align 8
  %location_string = alloca %"class.std::__cxx11::basic_string", align 8
  %message_string = alloca %"class.std::__cxx11::basic_string", align 8
  store ptr %location, ptr %location.addr, align 8
  store i64 %location_len, ptr %location_len.addr, align 8
  store ptr %message, ptr %message.addr, align 8
  store i64 %message_len, ptr %message_len.addr, align 8
  call void @_ZNSt7__cxx1112basic_stringIcSt11char_traitsIcESaIcEEC1Ev(ptr noundef nonnull align 8 dereferenceable(32) %location_string) #3
  call void @_ZNSt7__cxx1112basic_stringIcSt11char_traitsIcESaIcEEC1Ev(ptr noundef nonnull align 8 dereferenceable(32) %message_string) #3
  %0 = load i64, ptr %location_len.addr, align 8
  %cmp = icmp ne i64 %0, -1
  br i1 %cmp, label %if.then, label %if.else

if.then:                                          ; preds = %entry
  %1 = load ptr, ptr %location.addr, align 8
  %2 = load i64, ptr %location_len.addr, align 8
  %call = call noundef nonnull align 8 dereferenceable(32) ptr @_ZNSt7__cxx1112basic_stringIcSt11char_traitsIcESaIcEE6assignEPKcm(ptr noundef nonnull align 8 dereferenceable(32) %location_string, ptr noundef %1, i64 noundef %2)
  br label %if.end

if.else:                                          ; preds = %entry
  %3 = load ptr, ptr %location.addr, align 8
  %4 = load ptr, ptr %location.addr, align 8
  %call1 = call i64 @strlen(ptr noundef %4) #18
  %call2 = call noundef nonnull align 8 dereferenceable(32) ptr @_ZNSt7__cxx1112basic_stringIcSt11char_traitsIcESaIcEE6assignEPKcm(ptr noundef nonnull align 8 dereferenceable(32) %location_string, ptr noundef %3, i64 noundef %call1)
  br label %if.end

if.end:                                           ; preds = %if.else, %if.then
  %5 = load i64, ptr %message_len.addr, align 8
  %cmp3 = icmp ne i64 %5, -1
  br i1 %cmp3, label %if.then4, label %if.else6

if.then4:                                         ; preds = %if.end
  %6 = load ptr, ptr %message.addr, align 8
  %7 = load i64, ptr %message_len.addr, align 8
  %call5 = call noundef nonnull align 8 dereferenceable(32) ptr @_ZNSt7__cxx1112basic_stringIcSt11char_traitsIcESaIcEE6assignEPKcm(ptr noundef nonnull align 8 dereferenceable(32) %message_string, ptr noundef %6, i64 noundef %7)
  br label %if.end9

if.else6:                                         ; preds = %if.end
  %8 = load ptr, ptr %message.addr, align 8
  %9 = load ptr, ptr %message.addr, align 8
  %call7 = call i64 @strlen(ptr noundef %9) #18
  %call8 = call noundef nonnull align 8 dereferenceable(32) ptr @_ZNSt7__cxx1112basic_stringIcSt11char_traitsIcESaIcEE6assignEPKcm(ptr noundef nonnull align 8 dereferenceable(32) %message_string, ptr noundef %8, i64 noundef %call7)
  br label %if.end9

if.end9:                                          ; preds = %if.else6, %if.then4
  %call10 = call noundef ptr @_ZNKSt7__cxx1112basic_stringIcSt11char_traitsIcESaIcEE5c_strEv(ptr noundef nonnull align 8 dereferenceable(32) %location_string) #3
  %call11 = call noundef ptr @_ZNKSt7__cxx1112basic_stringIcSt11char_traitsIcESaIcEE5c_strEv(ptr noundef nonnull align 8 dereferenceable(32) %message_string) #3
  call void @_ZN4node12OnFatalErrorEPKcS1_(ptr noundef %call10, ptr noundef %call11) #15
  unreachable
}