; Function Attrs: mustprogress noreturn nounwind uwtable
define dso_local void @napi_fatal_error(ptr noundef %location, i64 noundef %location_len, ptr noundef %message, i64 noundef %message_len) local_unnamed_addr #8 {
entry:
  %location_string = alloca %"class.std::__cxx11::basic_string", align 8
  %message_string = alloca %"class.std::__cxx11::basic_string", align 8
  call void @_ZNSt7__cxx1112basic_stringIcSt11char_traitsIcESaIcEEC1Ev(ptr noundef nonnull align 8 dereferenceable(32) %location_string) #21
  call void @_ZNSt7__cxx1112basic_stringIcSt11char_traitsIcESaIcEEC1Ev(ptr noundef nonnull align 8 dereferenceable(32) %message_string) #21
  %cmp.not = icmp eq i64 %location_len, -1
  br i1 %cmp.not, label %if.else, label %if.end

if.else:                                          ; preds = %entry
  %call1 = call i64 @strlen(ptr noundef nonnull dereferenceable(1) %location) #26
  br label %if.end

if.end:                                           ; preds = %entry, %if.else
  %call1.sink = phi i64 [ %call1, %if.else ], [ %location_len, %entry ]
  %call2 = call noundef nonnull align 8 dereferenceable(32) ptr @_ZNSt7__cxx1112basic_stringIcSt11char_traitsIcESaIcEE6assignEPKcm(ptr noundef nonnull align 8 dereferenceable(32) %location_string, ptr noundef %location, i64 noundef %call1.sink) #21
  %cmp3.not = icmp eq i64 %message_len, -1
  br i1 %cmp3.not, label %if.else6, label %if.end9

if.else6:                                         ; preds = %if.end
  %call7 = call i64 @strlen(ptr noundef nonnull dereferenceable(1) %message) #26
  br label %if.end9

if.end9:                                          ; preds = %if.end, %if.else6
  %call7.sink = phi i64 [ %call7, %if.else6 ], [ %message_len, %if.end ]
  %call8 = call noundef nonnull align 8 dereferenceable(32) ptr @_ZNSt7__cxx1112basic_stringIcSt11char_traitsIcESaIcEE6assignEPKcm(ptr noundef nonnull align 8 dereferenceable(32) %message_string, ptr noundef %message, i64 noundef %call7.sink) #21
  %call10 = call noundef ptr @_ZNKSt7__cxx1112basic_stringIcSt11char_traitsIcESaIcEE5c_strEv(ptr noundef nonnull align 8 dereferenceable(32) %location_string) #21
  %call11 = call noundef ptr @_ZNKSt7__cxx1112basic_stringIcSt11char_traitsIcESaIcEE5c_strEv(ptr noundef nonnull align 8 dereferenceable(32) %message_string) #21
  call void @_ZN4node12OnFatalErrorEPKcS1_(ptr noundef %call10, ptr noundef %call11) #22
  unreachable
}